; Function Attrs: nounwind uwtable
define i32 @Ssw_ClassesRefine(ptr noundef captures(none) %0, i32 noundef %1) local_unnamed_addr #0 {
  %3 = load ptr, ptr %0, align 8, !tbaa !3
  %4 = getelementptr i8, ptr %3, i64 32
  %.val11 = load ptr, ptr %4, align 8, !tbaa !14
  %5 = getelementptr i8, ptr %.val11, i64 4
  %.val.val12 = load i32, ptr %5, align 4, !tbaa !24
  %6 = icmp sgt i32 %.val.val12, 0
  br i1 %6, label %.lr.ph, label %._crit_edge

.lr.ph:                                           ; preds = %2
  %7 = getelementptr inbounds nuw i8, ptr %0, i64 8
  br label %8

8:                                                ; preds = %.lr.ph, %18
  %9 = phi ptr [ %3, %.lr.ph ], [ %19, %18 ]
  %indvars.iv = phi i64 [ 0, %.lr.ph ], [ %indvars.iv.next, %18 ]
  %.014 = phi i32 [ 0, %.lr.ph ], [ %.1, %18 ]
  %10 = load ptr, ptr %7, align 8, !tbaa !26
  %11 = getelementptr inbounds nuw ptr, ptr %10, i64 %indvars.iv
  %12 = load ptr, ptr %11, align 8, !tbaa !43
  %13 = icmp eq ptr %12, null
  br i1 %13, label %18, label %14

14:                                               ; preds = %8
  %15 = load ptr, ptr %12, align 8, !tbaa !45
  %16 = tail call i32 @Ssw_ClassesRefineOneClass(ptr noundef nonnull %0, ptr noundef %15, i32 noundef %1)
  %17 = add nsw i32 %16, %.014
  %.pre = load ptr, ptr %0, align 8, !tbaa !3
  br label %18

18:                                               ; preds = %14, %8
  %19 = phi ptr [ %9, %8 ], [ %.pre, %14 ]
  %.1 = phi i32 [ %.014, %8 ], [ %17, %14 ]
  %indvars.iv.next = add nuw nsw i64 %indvars.iv, 1
  %20 = getelementptr i8, ptr %19, i64 32
  %.val = load ptr, ptr %20, align 8, !tbaa !14
  %21 = getelementptr i8, ptr %.val, i64 4
  %.val.val = load i32, ptr %21, align 4, !tbaa !24
  %22 = sext i32 %.val.val to i64
  %23 = icmp slt i64 %indvars.iv.next, %22
  br i1 %23, label %8, label %._crit_edge, !llvm.loop !65

._crit_edge:                                      ; preds = %18, %2
  %.0.lcssa = phi i32 [ 0, %2 ], [ %.1, %18 ]
  ret i32 %.0.lcssa
}